target datalayout = "e-m:e-p270:32:32-p271:32:32-p272:64:64-i64:64-i128:128-f80:128-n8:16:32:64-S128"
target triple = "x86_64-pc-linux-gnu"

%struct.tng_trajectory = type { ptr, ptr, i64, ptr, ptr, ptr, ptr, ptr, ptr, i8, i8, ptr, ptr, ptr, ptr, ptr, ptr, ptr, ptr, ptr, i64, i64, i8, i64, i64, i64, double, i64, ptr, ptr, i64, i64, i64, i64, i64, %struct.tng_trajectory_frame_set, i64, i64, i64, i32, ptr, i32, ptr, ptr, ptr, double }
%struct.tng_trajectory_frame_set = type { i64, ptr, i64, i64, i64, i64, ptr, i64, i64, i64, i64, i64, i64, i64, double, i32, ptr, i32, ptr }

; Function Attrs: nounwind uwtable
define i32 @tng_last_program_name_get(ptr noundef %0, ptr noundef %1, i32 noundef %2) #0 {
  %4 = alloca i32, align 4
  %5 = alloca ptr, align 8
  %6 = alloca ptr, align 8
  %7 = alloca i32, align 4
  store ptr %0, ptr %5, align 8, !tbaa !3
  store ptr %1, ptr %6, align 8, !tbaa !19
  store i32 %2, ptr %7, align 4, !tbaa !20
  %8 = load ptr, ptr %6, align 8, !tbaa !19
  %9 = load ptr, ptr %5, align 8, !tbaa !3
  %10 = getelementptr inbounds nuw %struct.tng_trajectory, ptr %9, i32 0, i32 16
  %11 = load ptr, ptr %10, align 8, !tbaa !144
  %12 = load i32, ptr %7, align 4, !tbaa !20
  %13 = sub nsw i32 %12, 1
  %14 = sext i32 %13 to i64
  %15 = call ptr @strncpy(ptr noundef %8, ptr noundef %11, i64 noundef %14) #11
  %16 = load ptr, ptr %6, align 8, !tbaa !19
  %17 = load i32, ptr %7, align 4, !tbaa !20
  %18 = sub nsw i32 %17, 1
  %19 = sext i32 %18 to i64
  %20 = getelementptr inbounds i8, ptr %16, i64 %19
  store i8 0, ptr %20, align 1, !tbaa !23
  %21 = load ptr, ptr %5, align 8, !tbaa !3
  %22 = getelementptr inbounds nuw %struct.tng_trajectory, ptr %21, i32 0, i32 16
  %23 = load ptr, ptr %22, align 8, !tbaa !144
  %24 = call i64 @strlen(ptr noundef %23) #12
  %25 = load i32, ptr %7, align 4, !tbaa !20
  %26 = sub i32 %25, 1
  %27 = zext i32 %26 to i64
  %28 = icmp ugt i64 %24, %27
  br i1 %28, label %29, label %30

29:                                               ; preds = %3
  store i32 1, ptr %4, align 4
  br label %31

30:                                               ; preds = %3
  store i32 0, ptr %4, align 4
  br label %31

31:                                               ; preds = %30, %29
  %32 = load i32, ptr %4, align 4
  ret i32 %32
}