; Function Attrs: mustprogress nofree nounwind willreturn memory(readwrite, inaccessiblemem: none) uwtable
define range(i32 0, 2) i32 @tng_last_program_name_get(ptr noundef readonly captures(none) %0, ptr noundef %1, i32 noundef %2) local_unnamed_addr #1 {
  %4 = getelementptr inbounds nuw i8, ptr %0, i64 120
  %5 = load ptr, ptr %4, align 8, !tbaa !142
  %6 = add nsw i32 %2, -1
  %7 = sext i32 %6 to i64
  %8 = tail call ptr @strncpy(ptr noundef %1, ptr noundef %5, i64 noundef %7) #26
  %9 = getelementptr inbounds i8, ptr %1, i64 %7
  store i8 0, ptr %9, align 1, !tbaa !13
  %10 = load ptr, ptr %4, align 8, !tbaa !142
  %11 = tail call i64 @strlen(ptr noundef nonnull dereferenceable(1) %10) #27
  %12 = zext i32 %6 to i64
  %13 = icmp ugt i64 %11, %12
  %. = zext i1 %13 to i32
  ret i32 %.
}